; Function Attrs: nounwind sspstrong uwtable
define internal noundef i64 @sliceafter_ii(i64 %0, i64 noundef %1, i32 noundef %2, ptr noundef %3, i64 %4) #0 {
  %6 = alloca i64, align 8
  tail call void @rb_gc_writebarrier_unprotect(i64 noundef %1) #14
  %7 = inttoptr i64 %1 to ptr
  %8 = load i64, ptr %7, align 8, !tbaa !20
  %9 = and i64 %8, 8192
  %.not.i.i = icmp eq i64 %9, 0
  br i1 %.not.i.i, label %12, label %10

10:                                               ; preds = %5
  %11 = getelementptr inbounds nuw i8, ptr %7, i64 16
  br label %RARRAY_PTR.exit

12:                                               ; preds = %5
  %13 = getelementptr inbounds nuw i8, ptr %7, i64 32
  %14 = load ptr, ptr %13, align 8, !tbaa !22
  br label %RARRAY_PTR.exit

RARRAY_PTR.exit:                                  ; preds = %10, %12
  %.0.i.i = phi ptr [ %11, %10 ], [ %14, %12 ]
  switch i32 %2, label %17 [
    i32 0, label %rb_enum_values_pack.exit
    i32 1, label %15
  ]

15:                                               ; preds = %RARRAY_PTR.exit
  %16 = load i64, ptr %3, align 8, !tbaa !7
  br label %rb_enum_values_pack.exit

17:                                               ; preds = %RARRAY_PTR.exit
  %18 = sext i32 %2 to i64
  %19 = tail call i64 @rb_ary_new_from_values(i64 noundef %18, ptr noundef %3) #14
  br label %rb_enum_values_pack.exit

rb_enum_values_pack.exit:                         ; preds = %RARRAY_PTR.exit, %15, %17
  %.0.i = phi i64 [ %16, %15 ], [ %19, %17 ], [ 4, %RARRAY_PTR.exit ]
  store i64 %.0.i, ptr %6, align 8, !tbaa !7
  %20 = getelementptr inbounds nuw i8, ptr %.0.i.i, i64 16
  %21 = load i64, ptr %20, align 8, !tbaa !137
  %22 = icmp eq i64 %21, 4
  br i1 %22, label %23, label %25

23:                                               ; preds = %rb_enum_values_pack.exit
  %24 = tail call i64 (i64, ...) @rb_ary_new_from_args(i64 noundef 1, i64 noundef %.0.i) #14
  store i64 %24, ptr %20, align 8, !tbaa !137
  br label %27

25:                                               ; preds = %rb_enum_values_pack.exit
  %26 = tail call i64 @rb_ary_push(i64 noundef %21, i64 noundef %.0.i) #14
  br label %27

27:                                               ; preds = %25, %23
  %28 = getelementptr inbounds nuw i8, ptr %.0.i.i, i64 8
  %29 = load i64, ptr %28, align 8, !tbaa !136
  %30 = icmp eq i64 %29, 4
  br i1 %30, label %31, label %42

31:                                               ; preds = %27
  %32 = load i64, ptr %.0.i.i, align 8, !tbaa !134
  %33 = call i64 @rb_funcallv(i64 noundef %32, i64 noundef 141, i32 noundef 1, ptr noundef nonnull %6) #14
  %34 = and i64 %33, -5
  %.not26 = icmp eq i64 %34, 0
  call void @rb_gc_writebarrier_unprotect(i64 noundef %1) #14
  %35 = load i64, ptr %7, align 8, !tbaa !20
  %36 = and i64 %35, 8192
  %.not.i.i16 = icmp eq i64 %36, 0
  br i1 %.not.i.i16, label %39, label %37

37:                                               ; preds = %31
  %38 = getelementptr inbounds nuw i8, ptr %7, i64 16
  br i1 %.not26, label %64, label %51

39:                                               ; preds = %31
  %40 = getelementptr inbounds nuw i8, ptr %7, i64 32
  %41 = load ptr, ptr %40, align 8, !tbaa !22
  br i1 %.not26, label %64, label %51

42:                                               ; preds = %27
  %43 = call i64 @rb_funcallv(i64 noundef %29, i64 noundef 3457, i32 noundef 1, ptr noundef nonnull %6) #14
  %44 = and i64 %43, -5
  %.not = icmp eq i64 %44, 0
  call void @rb_gc_writebarrier_unprotect(i64 noundef %1) #14
  %45 = load i64, ptr %7, align 8, !tbaa !20
  %46 = and i64 %45, 8192
  %.not.i.i19 = icmp eq i64 %46, 0
  br i1 %.not.i.i19, label %RARRAY_PTR.exit18, label %47

47:                                               ; preds = %42
  %48 = getelementptr inbounds nuw i8, ptr %7, i64 16
  br i1 %.not, label %64, label %51

RARRAY_PTR.exit18:                                ; preds = %42
  %49 = getelementptr inbounds nuw i8, ptr %7, i64 32
  %50 = load ptr, ptr %49, align 8, !tbaa !22
  br i1 %.not, label %64, label %51

51:                                               ; preds = %47, %39, %37, %RARRAY_PTR.exit18
  %.01525 = phi ptr [ %38, %37 ], [ %50, %RARRAY_PTR.exit18 ], [ %41, %39 ], [ %48, %47 ]
  %52 = getelementptr inbounds nuw i8, ptr %.01525, i64 24
  %53 = load i64, ptr %52, align 8, !tbaa !138
  %54 = getelementptr inbounds nuw i8, ptr %.01525, i64 16
  %55 = call i64 @rb_funcallv(i64 noundef %53, i64 noundef 136, i32 noundef 1, ptr noundef nonnull %54) #14
  call void @rb_gc_writebarrier_unprotect(i64 noundef %1) #14
  %56 = load i64, ptr %7, align 8, !tbaa !20
  %57 = and i64 %56, 8192
  %.not.i.i22 = icmp eq i64 %57, 0
  br i1 %.not.i.i22, label %60, label %58

58:                                               ; preds = %51
  %59 = getelementptr inbounds nuw i8, ptr %7, i64 16
  br label %RARRAY_PTR.exit24

60:                                               ; preds = %51
  %61 = getelementptr inbounds nuw i8, ptr %7, i64 32
  %62 = load ptr, ptr %61, align 8, !tbaa !22
  br label %RARRAY_PTR.exit24

RARRAY_PTR.exit24:                                ; preds = %58, %60
  %.0.i.i23 = phi ptr [ %59, %58 ], [ %62, %60 ]
  %63 = getelementptr inbounds nuw i8, ptr %.0.i.i23, i64 16
  store i64 4, ptr %63, align 8, !tbaa !137
  br label %64

64:                                               ; preds = %47, %39, %37, %RARRAY_PTR.exit24, %RARRAY_PTR.exit18
  ret i64 4
}